; Listing generated by Microsoft (R) Optimizing Compiler Version 19.39.33522.0 

include listing.inc

INCLUDELIB MSVCRTD
INCLUDELIB OLDNAMES

msvcjmc	SEGMENT
__AE52136B_Lab_01@pch DB 01H
__623919AE_daysUntilBirthday@cpp DB 01H
__6DC09320_stdafx@h DB 01H
__8FED6CB7_stdafx@cpp DB 01H
msvcjmc	ENDS
PUBLIC	?daysUntilBirthday@@YAHHH@Z			; daysUntilBirthday
PUBLIC	__JustMyCode_Default
EXTRN	?getDay@@YAHHHH@Z:PROC				; getDay
EXTRN	?getYear@@YA_NH@Z:PROC				; getYear
EXTRN	_RTC_InitBase:PROC
EXTRN	_RTC_Shutdown:PROC
EXTRN	__CheckForDebuggerJustMyCode:PROC
;	COMDAT pdata
pdata	SEGMENT
$pdata$?daysUntilBirthday@@YAHHH@Z DD imagerel $LN7
	DD	imagerel $LN7+192
	DD	imagerel $unwind$?daysUntilBirthday@@YAHHH@Z
pdata	ENDS
;	COMDAT rtc$TMZ
rtc$TMZ	SEGMENT
_RTC_Shutdown.rtc$TMZ DQ FLAT:_RTC_Shutdown
rtc$TMZ	ENDS
;	COMDAT rtc$IMZ
rtc$IMZ	SEGMENT
_RTC_InitBase.rtc$IMZ DQ FLAT:_RTC_InitBase
rtc$IMZ	ENDS
;	COMDAT xdata
xdata	SEGMENT
$unwind$?daysUntilBirthday@@YAHHH@Z DD 025051601H
	DD	01112316H
	DD	0700a0031H
	DD	05009H
xdata	ENDS
; Function compile flags: /Odt
;	COMDAT __JustMyCode_Default
_TEXT	SEGMENT
__JustMyCode_Default PROC				; COMDAT
  00000	c2 00 00	 ret	 0
__JustMyCode_Default ENDP
_TEXT	ENDS
; Function compile flags: /Odtp /RTCsu /ZI
; File C:\Users\HomeUser\Desktop\ œŒ\Lab_01\Lab_01\daysUntilBirthday.cpp
;	COMDAT ?daysUntilBirthday@@YAHHH@Z
_TEXT	SEGMENT
birthDay$ = 4
birthMonth$ = 36
birthDayYear$ = 68
daysInYear$1 = 100
daysInYear$2 = 132
dayYear$ = 384
year$ = 392
?daysUntilBirthday@@YAHHH@Z PROC			; daysUntilBirthday, COMDAT

; 5    : {

$LN7:
  00000	89 54 24 10	 mov	 DWORD PTR [rsp+16], edx
  00004	89 4c 24 08	 mov	 DWORD PTR [rsp+8], ecx
  00008	55		 push	 rbp
  00009	57		 push	 rdi
  0000a	48 81 ec 88 01
	00 00		 sub	 rsp, 392		; 00000188H
  00011	48 8d 6c 24 20	 lea	 rbp, QWORD PTR [rsp+32]
  00016	48 8d 0d 00 00
	00 00		 lea	 rcx, OFFSET FLAT:__623919AE_daysUntilBirthday@cpp
  0001d	e8 00 00 00 00	 call	 __CheckForDebuggerJustMyCode

; 6    :     const int birthDay = 4;

  00022	c7 45 04 04 00
	00 00		 mov	 DWORD PTR birthDay$[rbp], 4

; 7    :     const int birthMonth = 2;

  00029	c7 45 24 02 00
	00 00		 mov	 DWORD PTR birthMonth$[rbp], 2

; 8    :     int birthDayYear = getDay(birthDay, birthMonth, 2024);

  00030	41 b8 e8 07 00
	00		 mov	 r8d, 2024		; 000007e8H
  00036	ba 02 00 00 00	 mov	 edx, 2
  0003b	b9 04 00 00 00	 mov	 ecx, 4
  00040	e8 00 00 00 00	 call	 ?getDay@@YAHHHH@Z	; getDay
  00045	89 45 44	 mov	 DWORD PTR birthDayYear$[rbp], eax

; 9    : 
; 10   :     if (dayYear < birthDayYear)

  00048	8b 45 44	 mov	 eax, DWORD PTR birthDayYear$[rbp]
  0004b	39 85 80 01 00
	00		 cmp	 DWORD PTR dayYear$[rbp], eax
  00051	7d 11		 jge	 SHORT $LN2@daysUntilB

; 11   :     {
; 12   :         return birthDayYear - dayYear;

  00053	8b 85 80 01 00
	00		 mov	 eax, DWORD PTR dayYear$[rbp]
  00059	8b 4d 44	 mov	 ecx, DWORD PTR birthDayYear$[rbp]
  0005c	2b c8		 sub	 ecx, eax
  0005e	8b c1		 mov	 eax, ecx
  00060	eb 54		 jmp	 SHORT $LN1@daysUntilB

; 13   :     }

  00062	eb 52		 jmp	 SHORT $LN3@daysUntilB
$LN2@daysUntilB:

; 14   :     else if (getYear(year))

  00064	8b 8d 88 01 00
	00		 mov	 ecx, DWORD PTR year$[rbp]
  0006a	e8 00 00 00 00	 call	 ?getYear@@YA_NH@Z	; getYear
  0006f	0f b6 c0	 movzx	 eax, al
  00072	85 c0		 test	 eax, eax
  00074	74 1f		 je	 SHORT $LN4@daysUntilB

; 15   :     {
; 16   :         int daysInYear = 366;

  00076	c7 45 64 6e 01
	00 00		 mov	 DWORD PTR daysInYear$1[rbp], 366 ; 0000016eH

; 17   : 
; 18   :         return daysInYear - (dayYear - birthDayYear);

  0007d	8b 45 44	 mov	 eax, DWORD PTR birthDayYear$[rbp]
  00080	8b 8d 80 01 00
	00		 mov	 ecx, DWORD PTR dayYear$[rbp]
  00086	2b c8		 sub	 ecx, eax
  00088	8b c1		 mov	 eax, ecx
  0008a	8b 4d 64	 mov	 ecx, DWORD PTR daysInYear$1[rbp]
  0008d	2b c8		 sub	 ecx, eax
  0008f	8b c1		 mov	 eax, ecx
  00091	eb 23		 jmp	 SHORT $LN1@daysUntilB

; 19   :     }

  00093	eb 21		 jmp	 SHORT $LN5@daysUntilB
$LN4@daysUntilB:

; 20   :     else
; 21   :     {
; 22   :         int daysInYear = 365;

  00095	c7 85 84 00 00
	00 6d 01 00 00	 mov	 DWORD PTR daysInYear$2[rbp], 365 ; 0000016dH

; 23   : 
; 24   :         return daysInYear - (dayYear - birthDayYear);

  0009f	8b 45 44	 mov	 eax, DWORD PTR birthDayYear$[rbp]
  000a2	8b 8d 80 01 00
	00		 mov	 ecx, DWORD PTR dayYear$[rbp]
  000a8	2b c8		 sub	 ecx, eax
  000aa	8b c1		 mov	 eax, ecx
  000ac	8b 8d 84 00 00
	00		 mov	 ecx, DWORD PTR daysInYear$2[rbp]
  000b2	2b c8		 sub	 ecx, eax
  000b4	8b c1		 mov	 eax, ecx
$LN5@daysUntilB:
$LN3@daysUntilB:
$LN1@daysUntilB:

; 25   :     }
; 26   : }

  000b6	48 8d a5 68 01
	00 00		 lea	 rsp, QWORD PTR [rbp+360]
  000bd	5f		 pop	 rdi
  000be	5d		 pop	 rbp
  000bf	c3		 ret	 0
?daysUntilBirthday@@YAHHH@Z ENDP			; daysUntilBirthday
_TEXT	ENDS
END
